target datalayout = "e-m:e-p270:32:32-p271:32:32-p272:64:64-i64:64-i128:128-f80:128-n8:16:32:64-S128"
target triple = "x86_64-pc-linux-gnu"

%class.Handle = type { ptr }
%class.CallInfo = type { ptr, %class.methodHandle, %class.methodHandle, i32, i32, %class.Handle, %class.Handle }
%class.methodHandle = type { ptr, ptr }

; Function Attrs: mustprogress nounwind uwtable
define linkonce_odr hidden void @_ZN6HandleC2Ev(ptr noundef nonnull align 8 dereferenceable(8) %0) unnamed_addr #1 comdat align 2 {
  %2 = alloca ptr, align 8
  store ptr %0, ptr %2, align 8
  %3 = load ptr, ptr %2, align 8
  %4 = getelementptr inbounds %class.Handle, ptr %3, i32 0, i32 0
  store ptr null, ptr %4, align 8
  ret void
}

; Function Attrs: mustprogress nounwind uwtable
define linkonce_odr hidden noundef zeroext i1 @_ZNK12methodHandle8not_nullEv(ptr noundef nonnull align 8 dereferenceable(16) %0) #1 comdat align 2 {
  %2 = alloca ptr, align 8
  store ptr %0, ptr %2, align 8
  %3 = load ptr, ptr %2, align 8
  %4 = getelementptr inbounds %class.methodHandle, ptr %3, i32 0, i32 0
  %5 = load ptr, ptr %4, align 8
  %6 = icmp ne ptr %5, null
  ret i1 %6
}

; Function Attrs: mustprogress nounwind uwtable
define hidden void @_ZN8CallInfo10set_commonEP5KlassRK12methodHandleS4_NS_8CallKindEiP10JavaThread(ptr noundef nonnull align 8 dereferenceable(64) %0, ptr noundef %1, ptr noundef nonnull align 8 dereferenceable(16) %2, ptr noundef nonnull align 8 dereferenceable(16) %3, i32 noundef %4, i32 noundef %5, ptr noundef %6) #1 align 2 {
  %8 = alloca ptr, align 8
  %9 = alloca ptr, align 8
  %10 = alloca ptr, align 8
  %11 = alloca ptr, align 8
  %12 = alloca i32, align 4
  %13 = alloca i32, align 4
  %14 = alloca ptr, align 8
  %15 = alloca %class.Handle, align 8
  store ptr %0, ptr %8, align 8
  store ptr %1, ptr %9, align 8
  store ptr %2, ptr %10, align 8
  store ptr %3, ptr %11, align 8
  store i32 %4, ptr %12, align 4
  store i32 %5, ptr %13, align 4
  store ptr %6, ptr %14, align 8
  %16 = load ptr, ptr %8, align 8
  %17 = load ptr, ptr %11, align 8
  %18 = call noundef zeroext i1 @_ZNK12methodHandle8not_nullEv(ptr noundef nonnull align 8 dereferenceable(16) %17)
  br i1 %18, label %19, label %20

19:                                               ; preds = %7
  br label %20

20:                                               ; preds = %19, %7
  %21 = load ptr, ptr %9, align 8
  %22 = getelementptr inbounds %class.CallInfo, ptr %16, i32 0, i32 0
  store ptr %21, ptr %22, align 8
  %23 = load ptr, ptr %10, align 8
  %24 = getelementptr inbounds %class.CallInfo, ptr %16, i32 0, i32 1
  %25 = call noundef nonnull align 8 dereferenceable(16) ptr @_ZN12methodHandleaSERKS_(ptr noundef nonnull align 8 dereferenceable(16) %24, ptr noundef nonnull align 8 dereferenceable(16) %23)
  %26 = load ptr, ptr %11, align 8
  %27 = getelementptr inbounds %class.CallInfo, ptr %16, i32 0, i32 2
  %28 = call noundef nonnull align 8 dereferenceable(16) ptr @_ZN12methodHandleaSERKS_(ptr noundef nonnull align 8 dereferenceable(16) %27, ptr noundef nonnull align 8 dereferenceable(16) %26)
  %29 = load i32, ptr %12, align 4
  %30 = getelementptr inbounds %class.CallInfo, ptr %16, i32 0, i32 3
  store i32 %29, ptr %30, align 8
  %31 = load i32, ptr %13, align 4
  %32 = getelementptr inbounds %class.CallInfo, ptr %16, i32 0, i32 4
  store i32 %31, ptr %32, align 4
  call void @_ZN6HandleC2Ev(ptr noundef nonnull align 8 dereferenceable(8) %15)
  %33 = getelementptr inbounds %class.CallInfo, ptr %16, i32 0, i32 5
  call void @llvm.memcpy.p0.p0.i64(ptr align 8 %33, ptr align 8 %15, i64 8, i1 false)
  %34 = load ptr, ptr %11, align 8
  %35 = call noundef zeroext i1 @_ZNK12methodHandle8not_nullEv(ptr noundef nonnull align 8 dereferenceable(16) %34)
  br i1 %35, label %36, label %39

36:                                               ; preds = %20
  %37 = load ptr, ptr %11, align 8
  %38 = load ptr, ptr %14, align 8
  call void @_ZN17CompilationPolicy19compile_if_requiredERK12methodHandleP10JavaThread(ptr noundef nonnull align 8 dereferenceable(16) %37, ptr noundef %38)
  br label %39

39:                                               ; preds = %36, %20
  ret void
}