; Function Attrs: mustprogress nounwind uwtable
define hidden void @_ZN8CallInfo10set_commonEP5KlassRK12methodHandleS4_NS_8CallKindEiP10JavaThread(ptr noundef nonnull align 8 dereferenceable(64) %0, ptr noundef %1, ptr noundef nonnull align 8 dereferenceable(16) %2, ptr noundef nonnull align 8 dereferenceable(16) %3, i32 noundef %4, i32 noundef %5, ptr noundef %6) local_unnamed_addr #0 align 2 {
  store ptr %1, ptr %0, align 8
  %8 = getelementptr inbounds i8, ptr %0, i64 8
  %9 = tail call noundef nonnull align 8 dereferenceable(16) ptr @_ZN12methodHandleaSERKS_(ptr noundef nonnull align 8 dereferenceable(16) %8, ptr noundef nonnull align 8 dereferenceable(16) %2) #10
  %10 = getelementptr inbounds i8, ptr %0, i64 24
  %11 = tail call noundef nonnull align 8 dereferenceable(16) ptr @_ZN12methodHandleaSERKS_(ptr noundef nonnull align 8 dereferenceable(16) %10, ptr noundef nonnull align 8 dereferenceable(16) %3) #10
  %12 = getelementptr inbounds i8, ptr %0, i64 40
  store i32 %4, ptr %12, align 8
  %13 = getelementptr inbounds i8, ptr %0, i64 44
  store i32 %5, ptr %13, align 4
  %14 = getelementptr inbounds i8, ptr %0, i64 48
  store i64 0, ptr %14, align 8
  %15 = load ptr, ptr %3, align 8
  %.not = icmp eq ptr %15, null
  br i1 %.not, label %17, label %16

16:                                               ; preds = %7
  tail call void @_ZN17CompilationPolicy19compile_if_requiredERK12methodHandleP10JavaThread(ptr noundef nonnull align 8 dereferenceable(16) %3, ptr noundef %6) #10
  br label %17

17:                                               ; preds = %16, %7
  ret void
}